target datalayout = "e-m:e-p270:32:32-p271:32:32-p272:64:64-i64:64-i128:128-f80:128-n8:16:32:64-S128"
target triple = "x86_64-pc-linux-gnu"

%struct.UConverterSharedData = type { i32, i32, ptr, ptr, i8, i8, ptr, i32, %struct.UConverterMBCSTable }
%struct.UConverterMBCSTable = type { i8, i8, i8, i32, ptr, ptr, ptr, ptr, ptr, ptr, [64 x i16], ptr, ptr, i32, i8, i8, i8, i16, i32, ptr, ptr, ptr, ptr }
%struct.USetAdder = type { ptr, ptr, ptr, ptr, ptr, ptr }
%struct.UConverter = type { ptr, ptr, ptr, ptr, ptr, ptr, ptr, i32, i8, i8, i8, i8, i8, [7 x i8], i32, i32, i32, i32, i8, i8, i8, i8, i8, i8, i8, i8, [8 x i8], [32 x i8], [2 x i16], [2 x i16], [32 x i16], i32, [19 x i16], [31 x i8], i8, i8, i8, i32 }

; Function Attrs: mustprogress uwtable
define void @ucnv_MBCSGetUnicodeSetForUnicode_77(ptr noundef %0, ptr noundef %1, i32 noundef %2, ptr noundef %3) #0 {
  %5 = alloca ptr, align 8
  %6 = alloca ptr, align 8
  %7 = alloca i32, align 4
  %8 = alloca ptr, align 8
  store ptr %0, ptr %5, align 8, !tbaa !3
  store ptr %1, ptr %6, align 8, !tbaa !8
  store i32 %2, ptr %7, align 4, !tbaa !10
  store ptr %3, ptr %8, align 8, !tbaa !14
  %9 = load ptr, ptr %5, align 8, !tbaa !3
  %10 = load ptr, ptr %6, align 8, !tbaa !8
  %11 = load i32, ptr %7, align 4, !tbaa !10
  %12 = load ptr, ptr %5, align 8, !tbaa !3
  %13 = getelementptr inbounds nuw %struct.UConverterSharedData, ptr %12, i32 0, i32 8
  %14 = getelementptr inbounds nuw %struct.UConverterMBCSTable, ptr %13, i32 0, i32 14
  %15 = load i8, ptr %14, align 4, !tbaa !52
  %16 = zext i8 %15 to i32
  %17 = icmp eq i32 %16, 219
  %18 = select i1 %17, i32 1, i32 0
  %19 = load ptr, ptr %8, align 8, !tbaa !14
  call void @ucnv_MBCSGetFilteredUnicodeSetForUnicode_77(ptr noundef %9, ptr noundef %10, i32 noundef %11, i32 noundef %18, ptr noundef %19)
  ret void
}

; Function Attrs: mustprogress uwtable
define internal void @_ZL22ucnv_MBCSGetUnicodeSetPK10UConverterPK9USetAdder20UConverterUnicodeSetP10UErrorCode(ptr noundef %0, ptr noundef %1, i32 noundef %2, ptr noundef %3) #0 {
  %5 = alloca ptr, align 8
  %6 = alloca ptr, align 8
  %7 = alloca i32, align 4
  %8 = alloca ptr, align 8
  store ptr %0, ptr %5, align 8, !tbaa !60
  store ptr %1, ptr %6, align 8, !tbaa !8
  store i32 %2, ptr %7, align 4, !tbaa !10
  store ptr %3, ptr %8, align 8, !tbaa !14
  %9 = load ptr, ptr %5, align 8, !tbaa !60
  %10 = getelementptr inbounds nuw %struct.UConverter, ptr %9, i32 0, i32 7
  %11 = load i32, ptr %10, align 8, !tbaa !73
  %12 = and i32 %11, 32768
  %13 = icmp ne i32 %12, 0
  br i1 %13, label %14, label %27

14:                                               ; preds = %4
  %15 = load ptr, ptr %6, align 8, !tbaa !8
  %16 = getelementptr inbounds nuw %struct.USetAdder, ptr %15, i32 0, i32 2
  %17 = load ptr, ptr %16, align 8, !tbaa !199
  %18 = load ptr, ptr %6, align 8, !tbaa !8
  %19 = getelementptr inbounds nuw %struct.USetAdder, ptr %18, i32 0, i32 0
  %20 = load ptr, ptr %19, align 8, !tbaa !34
  call void %17(ptr noundef %20, i32 noundef 0, i32 noundef 55295)
  %21 = load ptr, ptr %6, align 8, !tbaa !8
  %22 = getelementptr inbounds nuw %struct.USetAdder, ptr %21, i32 0, i32 2
  %23 = load ptr, ptr %22, align 8, !tbaa !199
  %24 = load ptr, ptr %6, align 8, !tbaa !8
  %25 = getelementptr inbounds nuw %struct.USetAdder, ptr %24, i32 0, i32 0
  %26 = load ptr, ptr %25, align 8, !tbaa !34
  call void %23(ptr noundef %26, i32 noundef 57344, i32 noundef 1114111)
  br label %34

27:                                               ; preds = %4
  %28 = load ptr, ptr %5, align 8, !tbaa !60
  %29 = getelementptr inbounds nuw %struct.UConverter, ptr %28, i32 0, i32 6
  %30 = load ptr, ptr %29, align 8, !tbaa !64
  %31 = load ptr, ptr %6, align 8, !tbaa !8
  %32 = load i32, ptr %7, align 4, !tbaa !10
  %33 = load ptr, ptr %8, align 8, !tbaa !14
  call void @ucnv_MBCSGetUnicodeSetForUnicode_77(ptr noundef %30, ptr noundef %31, i32 noundef %32, ptr noundef %33)
  br label %34

34:                                               ; preds = %27, %14
  ret void
}