; Function Attrs: mustprogress uwtable
define internal void @_ZL22ucnv_MBCSGetUnicodeSetPK10UConverterPK9USetAdder20UConverterUnicodeSetP10UErrorCode(ptr noundef readonly captures(none) %0, ptr noundef %1, i32 noundef %2, ptr noundef %3) #0 {
  %5 = getelementptr inbounds nuw i8, ptr %0, i64 56
  %6 = load i32, ptr %5, align 8, !tbaa !60
  %7 = and i32 %6, 32768
  %.not = icmp eq i32 %7, 0
  br i1 %.not, label %14, label %8

8:                                                ; preds = %4
  %9 = getelementptr inbounds nuw i8, ptr %1, i64 16
  %10 = load ptr, ptr %9, align 8, !tbaa !177
  %11 = load ptr, ptr %1, align 8, !tbaa !22
  tail call void %10(ptr noundef %11, i32 noundef 0, i32 noundef 55295)
  %12 = load ptr, ptr %9, align 8, !tbaa !177
  %13 = load ptr, ptr %1, align 8, !tbaa !22
  tail call void %12(ptr noundef %13, i32 noundef 57344, i32 noundef 1114111)
  br label %21

14:                                               ; preds = %4
  %15 = getelementptr inbounds nuw i8, ptr %0, i64 48
  %16 = load ptr, ptr %15, align 8, !tbaa !50
  %17 = getelementptr inbounds nuw i8, ptr %16, i64 252
  %18 = load i8, ptr %17, align 4, !tbaa !39
  %19 = icmp eq i8 %18, -37
  %20 = zext i1 %19 to i32
  tail call void @ucnv_MBCSGetFilteredUnicodeSetForUnicode_77(ptr noundef %16, ptr noundef %1, i32 noundef %2, i32 noundef %20, ptr noundef %3)
  br label %21

21:                                               ; preds = %14, %8
  ret void
}